target datalayout = "e-m:e-p270:32:32-p271:32:32-p272:64:64-i64:64-i128:128-f80:128-n8:16:32:64-S128"
target triple = "x86_64-pc-linux-gnu"

@hf_rpc_authgss_token_length = internal global i32 0, align 4
@ett_rpc_gss_token = internal global i32 0, align 4
@gssapi_handle = internal global ptr null, align 8

; Function Attrs: null_pointer_is_valid sspstrong uwtable
define i32 @rpc_roundup(i32 noundef %0) #0 {
  %2 = alloca i32, align 4
  %3 = alloca i32, align 4
  %4 = alloca i32, align 4
  store i32 %0, ptr %2, align 4
  call void @llvm.lifetime.start.p0(i64 4, ptr %3) #18
  %5 = load i32, ptr %2, align 4
  %6 = urem i32 %5, 4
  store i32 %6, ptr %3, align 4
  call void @llvm.lifetime.start.p0(i64 4, ptr %4) #18
  %7 = load i32, ptr %2, align 4
  %8 = load i32, ptr %3, align 4
  %9 = icmp ne i32 %8, 0
  br i1 %9, label %10, label %13

10:                                               ; preds = %1
  %11 = load i32, ptr %3, align 4
  %12 = sub i32 4, %11
  br label %14

13:                                               ; preds = %1
  br label %14

14:                                               ; preds = %13, %10
  %15 = phi i32 [ %12, %10 ], [ 0, %13 ]
  %16 = add i32 %7, %15
  store i32 %16, ptr %4, align 4
  %17 = load i32, ptr %4, align 4
  %18 = load i32, ptr %2, align 4
  %19 = icmp ult i32 %17, %18
  br i1 %19, label %20, label %21

20:                                               ; preds = %14
  call void @except_throw(i64 noundef 1, i64 noundef 3, ptr noundef null) #21
  unreachable

21:                                               ; preds = %14
  %22 = load i32, ptr %4, align 4
  call void @llvm.lifetime.end.p0(i64 4, ptr %4) #18
  call void @llvm.lifetime.end.p0(i64 4, ptr %3) #18
  ret i32 %22
}

; Function Attrs: null_pointer_is_valid sspstrong uwtable
define internal i32 @dissect_rpc_authgss_token(ptr noundef %0, ptr noundef %1, i32 noundef %2, ptr noundef %3, i32 noundef %4) #0 {
  %6 = alloca ptr, align 8
  %7 = alloca ptr, align 8
  %8 = alloca i32, align 4
  %9 = alloca ptr, align 8
  %10 = alloca i32, align 4
  %11 = alloca i32, align 4
  %12 = alloca i32, align 4
  %13 = alloca i32, align 4
  %14 = alloca i32, align 4
  %15 = alloca i32, align 4
  %16 = alloca ptr, align 8
  %17 = alloca ptr, align 8
  %18 = alloca ptr, align 8
  store ptr %0, ptr %6, align 8
  store ptr %1, ptr %7, align 8
  store i32 %2, ptr %8, align 4
  store ptr %3, ptr %9, align 8
  store i32 %4, ptr %10, align 4
  call void @llvm.lifetime.start.p0(i64 4, ptr %11) #18
  call void @llvm.lifetime.start.p0(i64 4, ptr %12) #18
  call void @llvm.lifetime.start.p0(i64 4, ptr %13) #18
  call void @llvm.lifetime.start.p0(i64 4, ptr %14) #18
  call void @llvm.lifetime.start.p0(i64 4, ptr %15) #18
  call void @llvm.lifetime.start.p0(i64 8, ptr %16) #18
  call void @llvm.lifetime.start.p0(i64 8, ptr %17) #18
  call void @llvm.lifetime.start.p0(i64 8, ptr %18) #18
  store ptr null, ptr %18, align 8
  %19 = load ptr, ptr %6, align 8
  %20 = load i32, ptr %8, align 4
  %21 = call i32 @tvb_get_ntohl(ptr noundef %19, i32 noundef %20)
  store i32 %21, ptr %11, align 4
  %22 = load i32, ptr %11, align 4
  %23 = call i32 @rpc_roundup(i32 noundef %22)
  store i32 %23, ptr %12, align 4
  %24 = load ptr, ptr %7, align 8
  %25 = load i32, ptr %10, align 4
  %26 = load ptr, ptr %6, align 8
  %27 = load i32, ptr %8, align 4
  %28 = load i32, ptr %12, align 4
  %29 = add i32 4, %28
  %30 = call ptr @proto_tree_add_item(ptr noundef %24, i32 noundef %25, ptr noundef %26, i32 noundef %27, i32 noundef %29, i32 noundef 0)
  store ptr %30, ptr %17, align 8
  %31 = load ptr, ptr %17, align 8
  %32 = load i32, ptr @ett_rpc_gss_token, align 4
  %33 = call ptr @proto_item_add_subtree(ptr noundef %31, i32 noundef %32)
  store ptr %33, ptr %18, align 8
  %34 = load ptr, ptr %18, align 8
  %35 = load i32, ptr @hf_rpc_authgss_token_length, align 4
  %36 = load ptr, ptr %6, align 8
  %37 = load i32, ptr %8, align 4
  %38 = load i32, ptr %11, align 4
  %39 = call ptr @proto_tree_add_uint(ptr noundef %34, i32 noundef %35, ptr noundef %36, i32 noundef %37, i32 noundef 4, i32 noundef %38)
  %40 = load i32, ptr %8, align 4
  %41 = add i32 %40, 4
  store i32 %41, ptr %8, align 4
  %42 = load i32, ptr %11, align 4
  %43 = icmp ne i32 %42, 0
  br i1 %43, label %44, label %82

44:                                               ; preds = %5
  %45 = load ptr, ptr %6, align 8
  %46 = load i32, ptr %8, align 4
  %47 = call i32 @tvb_captured_length_remaining(ptr noundef %45, i32 noundef %46)
  store i32 %47, ptr %14, align 4
  %48 = load ptr, ptr %6, align 8
  %49 = load i32, ptr %8, align 4
  %50 = call i32 @tvb_reported_length_remaining(ptr noundef %48, i32 noundef %49)
  store i32 %50, ptr %15, align 4
  %51 = load i32, ptr %14, align 4
  %52 = load i32, ptr %15, align 4
  %53 = icmp sgt i32 %51, %52
  br i1 %53, label %54, label %56

54:                                               ; preds = %44
  %55 = load i32, ptr %15, align 4
  store i32 %55, ptr %14, align 4
  br label %56

56:                                               ; preds = %54, %44
  %57 = load i32, ptr %14, align 4
  %58 = load i32, ptr %11, align 4
  %59 = icmp ugt i32 %57, %58
  br i1 %59, label %60, label %62

60:                                               ; preds = %56
  %61 = load i32, ptr %11, align 4
  store i32 %61, ptr %14, align 4
  br label %62

62:                                               ; preds = %60, %56
  %63 = load i32, ptr %15, align 4
  %64 = load i32, ptr %11, align 4
  %65 = icmp ugt i32 %63, %64
  br i1 %65, label %66, label %68

66:                                               ; preds = %62
  %67 = load i32, ptr %11, align 4
  store i32 %67, ptr %15, align 4
  br label %68

68:                                               ; preds = %66, %62
  %69 = load ptr, ptr %6, align 8
  %70 = load i32, ptr %8, align 4
  %71 = load i32, ptr %14, align 4
  %72 = load i32, ptr %15, align 4
  %73 = call ptr @tvb_new_subset_length_caplen(ptr noundef %69, i32 noundef %70, i32 noundef %71, i32 noundef %72)
  store ptr %73, ptr %16, align 8
  %74 = load ptr, ptr @gssapi_handle, align 8
  %75 = load ptr, ptr %16, align 8
  %76 = load ptr, ptr %9, align 8
  %77 = load ptr, ptr %18, align 8
  %78 = call i32 @call_dissector(ptr noundef %74, ptr noundef %75, ptr noundef %76, ptr noundef %77)
  store i32 %78, ptr %13, align 4
  %79 = load i32, ptr %13, align 4
  %80 = load i32, ptr %8, align 4
  %81 = add i32 %80, %79
  store i32 %81, ptr %8, align 4
  br label %82

82:                                               ; preds = %68, %5
  %83 = load i32, ptr %8, align 4
  %84 = call i32 @rpc_roundup(i32 noundef %83)
  store i32 %84, ptr %8, align 4
  %85 = load i32, ptr %8, align 4
  call void @llvm.lifetime.end.p0(i64 8, ptr %18) #18
  call void @llvm.lifetime.end.p0(i64 8, ptr %17) #18
  call void @llvm.lifetime.end.p0(i64 8, ptr %16) #18
  call void @llvm.lifetime.end.p0(i64 4, ptr %15) #18
  call void @llvm.lifetime.end.p0(i64 4, ptr %14) #18
  call void @llvm.lifetime.end.p0(i64 4, ptr %13) #18
  call void @llvm.lifetime.end.p0(i64 4, ptr %12) #18
  call void @llvm.lifetime.end.p0(i64 4, ptr %11) #18
  ret i32 %85
}