; Function Attrs: null_pointer_is_valid sspstrong uwtable
define internal fastcc i32 @dissect_rpc_authgss_token(ptr noundef %0, ptr noundef %1, i32 noundef %2, ptr noundef %3, i32 noundef %4) unnamed_addr #0 {
  %6 = tail call i32 @tvb_get_ntohl(ptr noundef %0, i32 noundef %2)
  %7 = and i32 %6, 3
  %.not.i = icmp eq i32 %7, 0
  %8 = sub nuw nsw i32 4, %7
  %9 = select i1 %.not.i, i32 0, i32 %8
  %10 = add i32 %9, %6
  %11 = icmp ult i32 %10, %6
  br i1 %11, label %12, label %rpc_roundup.exit

12:                                               ; preds = %5
  tail call void @except_throw(i64 noundef 1, i64 noundef 3, ptr noundef null) #19
  unreachable

rpc_roundup.exit:                                 ; preds = %5
  %13 = add i32 %10, 4
  %14 = tail call ptr @proto_tree_add_item(ptr noundef %1, i32 noundef %4, ptr noundef %0, i32 noundef %2, i32 noundef %13, i32 noundef 0)
  %15 = load i32, ptr @ett_rpc_gss_token, align 4
  %16 = tail call ptr @proto_item_add_subtree(ptr noundef %14, i32 noundef %15)
  %17 = load i32, ptr @hf_rpc_authgss_token_length, align 4
  %18 = tail call ptr @proto_tree_add_uint(ptr noundef %16, i32 noundef %17, ptr noundef %0, i32 noundef %2, i32 noundef 4, i32 noundef %6)
  %19 = add i32 %2, 4
  %.not = icmp eq i32 %6, 0
  br i1 %.not, label %27, label %20

20:                                               ; preds = %rpc_roundup.exit
  %21 = tail call i32 @tvb_captured_length_remaining(ptr noundef %0, i32 noundef %19)
  %22 = tail call i32 @tvb_reported_length_remaining(ptr noundef %0, i32 noundef %19)
  %spec.select = tail call i32 @llvm.smin.i32(i32 %21, i32 %22)
  %.1 = tail call i32 @llvm.umin.i32(i32 %spec.select, i32 %6)
  %.039 = tail call i32 @llvm.umin.i32(i32 %22, i32 %6)
  %23 = tail call ptr @tvb_new_subset_length_caplen(ptr noundef %0, i32 noundef %19, i32 noundef %.1, i32 noundef %.039)
  %24 = load ptr, ptr @gssapi_handle, align 8
  %25 = tail call i32 @call_dissector(ptr noundef %24, ptr noundef %23, ptr noundef %3, ptr noundef %16)
  %26 = add i32 %25, %19
  br label %27

27:                                               ; preds = %20, %rpc_roundup.exit
  %.0 = phi i32 [ %26, %20 ], [ %19, %rpc_roundup.exit ]
  %28 = and i32 %.0, 3
  %.not.i44 = icmp eq i32 %28, 0
  %29 = sub nuw nsw i32 4, %28
  %30 = select i1 %.not.i44, i32 0, i32 %29
  %31 = add i32 %30, %.0
  %32 = icmp ult i32 %31, %.0
  br i1 %32, label %33, label %rpc_roundup.exit45

33:                                               ; preds = %27
  tail call void @except_throw(i64 noundef 1, i64 noundef 3, ptr noundef null) #19
  unreachable

rpc_roundup.exit45:                               ; preds = %27
  ret i32 %31
}